target datalayout = "e-m:e-p270:32:32-p271:32:32-p272:64:64-i64:64-i128:128-f80:128-n8:16:32:64-S128"
target triple = "x86_64-pc-linux-gnu"

@hf_link_param_gen = internal global i32 0, align 4
@hf_link_param_qos = internal global i32 0, align 4
@hf_link_param_gg = internal global i32 0, align 4
@hf_link_param_edge = internal global i32 0, align 4
@hf_link_param_eth = internal global i32 0, align 4
@hf_link_param_802_11 = internal global i32 0, align 4
@hf_link_param_c2k = internal global i32 0, align 4
@hf_link_param_fdd = internal global i32 0, align 4
@hf_link_param_hrpd = internal global i32 0, align 4
@hf_link_param_802_16 = internal global i32 0, align 4
@hf_link_param_802_20 = internal global i32 0, align 4
@hf_link_param_802_22 = internal global i32 0, align 4
@hf_time_interval = internal global i32 0, align 4
@hf_threshold_val = internal global i32 0, align 4
@hf_threshold_x_dir = internal global i32 0, align 4
@hf_threshold_action = internal global i32 0, align 4

; Function Attrs: null_pointer_is_valid sspstrong uwtable
define internal signext i16 @dissect_link_param_type(ptr noundef %0, i16 noundef signext %1, ptr noundef %2) #0 {
  %4 = alloca ptr, align 8
  %5 = alloca i16, align 2
  %6 = alloca ptr, align 8
  %7 = alloca i8, align 1
  store ptr %0, ptr %4, align 8
  store i16 %1, ptr %5, align 2
  store ptr %2, ptr %6, align 8
  call void @llvm.lifetime.start.p0(i64 1, ptr %7) #5
  %8 = load ptr, ptr %4, align 8
  %9 = load i16, ptr %5, align 2
  %10 = sext i16 %9 to i32
  %11 = call zeroext i8 @tvb_get_uint8(ptr noundef %8, i32 noundef %10)
  store i8 %11, ptr %7, align 1
  %12 = load i16, ptr %5, align 2
  %13 = add i16 %12, 1
  store i16 %13, ptr %5, align 2
  %14 = load i8, ptr %7, align 1
  %15 = zext i8 %14 to i32
  switch i32 %15, label %100 [
    i32 0, label %16
    i32 1, label %23
    i32 2, label %30
    i32 3, label %37
    i32 4, label %44
    i32 5, label %51
    i32 6, label %58
    i32 7, label %65
    i32 8, label %72
    i32 9, label %79
    i32 10, label %86
    i32 11, label %93
  ]

16:                                               ; preds = %3
  %17 = load ptr, ptr %6, align 8
  %18 = load i32, ptr @hf_link_param_gen, align 4
  %19 = load ptr, ptr %4, align 8
  %20 = load i16, ptr %5, align 2
  %21 = sext i16 %20 to i32
  %22 = call ptr @proto_tree_add_item(ptr noundef %17, i32 noundef %18, ptr noundef %19, i32 noundef %21, i32 noundef 1, i32 noundef 0)
  br label %100

23:                                               ; preds = %3
  %24 = load ptr, ptr %6, align 8
  %25 = load i32, ptr @hf_link_param_qos, align 4
  %26 = load ptr, ptr %4, align 8
  %27 = load i16, ptr %5, align 2
  %28 = sext i16 %27 to i32
  %29 = call ptr @proto_tree_add_item(ptr noundef %24, i32 noundef %25, ptr noundef %26, i32 noundef %28, i32 noundef 1, i32 noundef 0)
  br label %100

30:                                               ; preds = %3
  %31 = load ptr, ptr %6, align 8
  %32 = load i32, ptr @hf_link_param_gg, align 4
  %33 = load ptr, ptr %4, align 8
  %34 = load i16, ptr %5, align 2
  %35 = sext i16 %34 to i32
  %36 = call ptr @proto_tree_add_item(ptr noundef %31, i32 noundef %32, ptr noundef %33, i32 noundef %35, i32 noundef 1, i32 noundef 0)
  br label %100

37:                                               ; preds = %3
  %38 = load ptr, ptr %6, align 8
  %39 = load i32, ptr @hf_link_param_edge, align 4
  %40 = load ptr, ptr %4, align 8
  %41 = load i16, ptr %5, align 2
  %42 = sext i16 %41 to i32
  %43 = call ptr @proto_tree_add_item(ptr noundef %38, i32 noundef %39, ptr noundef %40, i32 noundef %42, i32 noundef 1, i32 noundef 0)
  br label %100

44:                                               ; preds = %3
  %45 = load ptr, ptr %6, align 8
  %46 = load i32, ptr @hf_link_param_eth, align 4
  %47 = load ptr, ptr %4, align 8
  %48 = load i16, ptr %5, align 2
  %49 = sext i16 %48 to i32
  %50 = call ptr @proto_tree_add_item(ptr noundef %45, i32 noundef %46, ptr noundef %47, i32 noundef %49, i32 noundef 1, i32 noundef 0)
  br label %100

51:                                               ; preds = %3
  %52 = load ptr, ptr %6, align 8
  %53 = load i32, ptr @hf_link_param_802_11, align 4
  %54 = load ptr, ptr %4, align 8
  %55 = load i16, ptr %5, align 2
  %56 = sext i16 %55 to i32
  %57 = call ptr @proto_tree_add_item(ptr noundef %52, i32 noundef %53, ptr noundef %54, i32 noundef %56, i32 noundef 1, i32 noundef 0)
  br label %100

58:                                               ; preds = %3
  %59 = load ptr, ptr %6, align 8
  %60 = load i32, ptr @hf_link_param_c2k, align 4
  %61 = load ptr, ptr %4, align 8
  %62 = load i16, ptr %5, align 2
  %63 = sext i16 %62 to i32
  %64 = call ptr @proto_tree_add_item(ptr noundef %59, i32 noundef %60, ptr noundef %61, i32 noundef %63, i32 noundef 1, i32 noundef 0)
  br label %100

65:                                               ; preds = %3
  %66 = load ptr, ptr %6, align 8
  %67 = load i32, ptr @hf_link_param_fdd, align 4
  %68 = load ptr, ptr %4, align 8
  %69 = load i16, ptr %5, align 2
  %70 = sext i16 %69 to i32
  %71 = call ptr @proto_tree_add_item(ptr noundef %66, i32 noundef %67, ptr noundef %68, i32 noundef %70, i32 noundef 1, i32 noundef 0)
  br label %100

72:                                               ; preds = %3
  %73 = load ptr, ptr %6, align 8
  %74 = load i32, ptr @hf_link_param_hrpd, align 4
  %75 = load ptr, ptr %4, align 8
  %76 = load i16, ptr %5, align 2
  %77 = sext i16 %76 to i32
  %78 = call ptr @proto_tree_add_item(ptr noundef %73, i32 noundef %74, ptr noundef %75, i32 noundef %77, i32 noundef 1, i32 noundef 0)
  br label %100

79:                                               ; preds = %3
  %80 = load ptr, ptr %6, align 8
  %81 = load i32, ptr @hf_link_param_802_16, align 4
  %82 = load ptr, ptr %4, align 8
  %83 = load i16, ptr %5, align 2
  %84 = sext i16 %83 to i32
  %85 = call ptr @proto_tree_add_item(ptr noundef %80, i32 noundef %81, ptr noundef %82, i32 noundef %84, i32 noundef 1, i32 noundef 0)
  br label %100

86:                                               ; preds = %3
  %87 = load ptr, ptr %6, align 8
  %88 = load i32, ptr @hf_link_param_802_20, align 4
  %89 = load ptr, ptr %4, align 8
  %90 = load i16, ptr %5, align 2
  %91 = sext i16 %90 to i32
  %92 = call ptr @proto_tree_add_item(ptr noundef %87, i32 noundef %88, ptr noundef %89, i32 noundef %91, i32 noundef 1, i32 noundef 0)
  br label %100

93:                                               ; preds = %3
  %94 = load ptr, ptr %6, align 8
  %95 = load i32, ptr @hf_link_param_802_22, align 4
  %96 = load ptr, ptr %4, align 8
  %97 = load i16, ptr %5, align 2
  %98 = sext i16 %97 to i32
  %99 = call ptr @proto_tree_add_item(ptr noundef %94, i32 noundef %95, ptr noundef %96, i32 noundef %98, i32 noundef 1, i32 noundef 0)
  br label %100

100:                                              ; preds = %3, %93, %86, %79, %72, %65, %58, %51, %44, %37, %30, %23, %16
  %101 = load i16, ptr %5, align 2
  %102 = sext i16 %101 to i32
  %103 = add i32 %102, 1
  %104 = trunc i32 %103 to i16
  call void @llvm.lifetime.end.p0(i64 1, ptr %7) #5
  ret i16 %104
}

; Function Attrs: null_pointer_is_valid sspstrong uwtable
define internal signext i16 @dissect_link_cfg_param(ptr noundef %0, i16 noundef signext %1, ptr noundef %2) #0 {
  %4 = alloca ptr, align 8
  %5 = alloca i16, align 2
  %6 = alloca ptr, align 8
  store ptr %0, ptr %4, align 8
  store i16 %1, ptr %5, align 2
  store ptr %2, ptr %6, align 8
  %7 = load ptr, ptr %4, align 8
  %8 = load i16, ptr %5, align 2
  %9 = load ptr, ptr %6, align 8
  %10 = call signext i16 @dissect_link_param_type(ptr noundef %7, i16 noundef signext %8, ptr noundef %9)
  store i16 %10, ptr %5, align 2
  %11 = load ptr, ptr %4, align 8
  %12 = load i16, ptr %5, align 2
  %13 = sext i16 %12 to i32
  %14 = call zeroext i8 @tvb_get_uint8(ptr noundef %11, i32 noundef %13)
  %15 = icmp ne i8 %14, 0
  br i1 %15, label %16, label %27

16:                                               ; preds = %3
  %17 = load ptr, ptr %6, align 8
  %18 = load i32, ptr @hf_time_interval, align 4
  %19 = load ptr, ptr %4, align 8
  %20 = load i16, ptr %5, align 2
  %21 = sext i16 %20 to i32
  %22 = call ptr @proto_tree_add_item(ptr noundef %17, i32 noundef %18, ptr noundef %19, i32 noundef %21, i32 noundef 2, i32 noundef 0)
  %23 = load i16, ptr %5, align 2
  %24 = sext i16 %23 to i32
  %25 = add i32 %24, 2
  %26 = trunc i32 %25 to i16
  store i16 %26, ptr %5, align 2
  br label %27

27:                                               ; preds = %16, %3
  %28 = load i16, ptr %5, align 2
  %29 = add i16 %28, 1
  store i16 %29, ptr %5, align 2
  %30 = load ptr, ptr %6, align 8
  %31 = load i32, ptr @hf_threshold_action, align 4
  %32 = load ptr, ptr %4, align 8
  %33 = load i16, ptr %5, align 2
  %34 = sext i16 %33 to i32
  %35 = call ptr @proto_tree_add_item(ptr noundef %30, i32 noundef %31, ptr noundef %32, i32 noundef %34, i32 noundef 1, i32 noundef 0)
  %36 = load i16, ptr %5, align 2
  %37 = add i16 %36, 1
  store i16 %37, ptr %5, align 2
  %38 = load ptr, ptr %6, align 8
  %39 = load i32, ptr @hf_threshold_val, align 4
  %40 = load ptr, ptr %4, align 8
  %41 = load i16, ptr %5, align 2
  %42 = sext i16 %41 to i32
  %43 = call ptr @proto_tree_add_item(ptr noundef %38, i32 noundef %39, ptr noundef %40, i32 noundef %42, i32 noundef 2, i32 noundef 0)
  %44 = load i16, ptr %5, align 2
  %45 = sext i16 %44 to i32
  %46 = add i32 %45, 2
  %47 = trunc i32 %46 to i16
  store i16 %47, ptr %5, align 2
  %48 = load ptr, ptr %6, align 8
  %49 = load i32, ptr @hf_threshold_x_dir, align 4
  %50 = load ptr, ptr %4, align 8
  %51 = load i16, ptr %5, align 2
  %52 = sext i16 %51 to i32
  %53 = call ptr @proto_tree_add_item(ptr noundef %48, i32 noundef %49, ptr noundef %50, i32 noundef %52, i32 noundef 1, i32 noundef 0)
  %54 = load i16, ptr %5, align 2
  %55 = sext i16 %54 to i32
  %56 = add i32 %55, 1
  %57 = trunc i32 %56 to i16
  ret i16 %57
}