; Function Attrs: null_pointer_is_valid sspstrong uwtable
define internal noundef signext i16 @dissect_link_cfg_param(ptr noundef %0, i16 noundef signext %1, ptr noundef %2) #0 {
  %4 = sext i16 %1 to i32
  %5 = tail call zeroext i8 @tvb_get_uint8(ptr noundef %0, i32 noundef %4)
  %6 = icmp ult i8 %5, 12
  br i1 %6, label %switch.lookup, label %dissect_link_param_type.exit

switch.lookup:                                    ; preds = %3
  %7 = add i16 %1, 1
  %8 = zext nneg i8 %5 to i64
  %switch.gep = getelementptr inbounds nuw [12 x ptr], ptr @switch.table.dissect_link_param, i64 0, i64 %8
  %switch.load = load ptr, ptr %switch.gep, align 8
  %9 = load i32, ptr %switch.load, align 4
  %10 = sext i16 %7 to i32
  %11 = tail call ptr @proto_tree_add_item(ptr noundef %2, i32 noundef %9, ptr noundef %0, i32 noundef %10, i32 noundef 1, i32 noundef 0)
  br label %dissect_link_param_type.exit

dissect_link_param_type.exit:                     ; preds = %3, %switch.lookup
  %12 = add i16 %1, 2
  %13 = sext i16 %12 to i32
  %14 = tail call zeroext i8 @tvb_get_uint8(ptr noundef %0, i32 noundef %13)
  %.not = icmp eq i8 %14, 0
  br i1 %.not, label %19, label %15

15:                                               ; preds = %dissect_link_param_type.exit
  %16 = load i32, ptr @hf_time_interval, align 4
  %17 = tail call ptr @proto_tree_add_item(ptr noundef %2, i32 noundef %16, ptr noundef %0, i32 noundef %13, i32 noundef 2, i32 noundef 0)
  %18 = add i16 %1, 4
  br label %19

19:                                               ; preds = %15, %dissect_link_param_type.exit
  %.0 = phi i16 [ %18, %15 ], [ %12, %dissect_link_param_type.exit ]
  %20 = add i16 %.0, 1
  %21 = load i32, ptr @hf_threshold_action, align 4
  %22 = sext i16 %20 to i32
  %23 = tail call ptr @proto_tree_add_item(ptr noundef %2, i32 noundef %21, ptr noundef %0, i32 noundef %22, i32 noundef 1, i32 noundef 0)
  %24 = add i16 %.0, 2
  %25 = load i32, ptr @hf_threshold_val, align 4
  %26 = sext i16 %24 to i32
  %27 = tail call ptr @proto_tree_add_item(ptr noundef %2, i32 noundef %25, ptr noundef %0, i32 noundef %26, i32 noundef 2, i32 noundef 0)
  %28 = add i16 %.0, 4
  %29 = load i32, ptr @hf_threshold_x_dir, align 4
  %30 = sext i16 %28 to i32
  %31 = tail call ptr @proto_tree_add_item(ptr noundef %2, i32 noundef %29, ptr noundef %0, i32 noundef %30, i32 noundef 1, i32 noundef 0)
  %32 = add i16 %.0, 5
  ret i16 %32
}